; ModuleID = '7/129.c'
source_filename = "7/129.c"
target datalayout = "e-m:e-p270:32:32-p271:32:32-p272:64:64-i64:64-f80:128-n8:16:32:64-S128"
target triple = "x86_64-pc-linux-gnu"

@.str = private unnamed_addr constant [3 x i8] c"%s\00", align 1

; Function Attrs: noinline nounwind uwtable
define dso_local i32 @main() #0 {
  %1 = alloca i32, align 4
  %2 = alloca [256 x i8], align 16
  %3 = alloca [256 x i8], align 16
  %4 = alloca [256 x i8], align 16
  %5 = alloca i32, align 4
  %6 = alloca i32, align 4
  %7 = alloca i32, align 4
  %8 = alloca i32, align 4
  %9 = alloca i32, align 4
  %10 = alloca i32, align 4
  store i32 0, i32* %1, align 4
  %11 = getelementptr inbounds [256 x i8], [256 x i8]* %2, i64 0, i64 0
  %12 = call i32 (i8*, ...) @__isoc99_scanf(i8* getelementptr inbounds ([3 x i8], [3 x i8]* @.str, i64 0, i64 0), i8* %11)
  %13 = getelementptr inbounds [256 x i8], [256 x i8]* %3, i64 0, i64 0
  %14 = call i32 (i8*, ...) @__isoc99_scanf(i8* getelementptr inbounds ([3 x i8], [3 x i8]* @.str, i64 0, i64 0), i8* %13)
  %15 = getelementptr inbounds [256 x i8], [256 x i8]* %4, i64 0, i64 0
  %16 = call i32 (i8*, ...) @__isoc99_scanf(i8* getelementptr inbounds ([3 x i8], [3 x i8]* @.str, i64 0, i64 0), i8* %15)
  %17 = getelementptr inbounds [256 x i8], [256 x i8]* %2, i64 0, i64 0
  %18 = call i64 @strlen(i8* %17) #3
  %19 = trunc i64 %18 to i32
  store i32 %19, i32* %5, align 4
  %20 = getelementptr inbounds [256 x i8], [256 x i8]* %3, i64 0, i64 0
  %21 = call i64 @strlen(i8* %20) #3
  %22 = trunc i64 %21 to i32
  store i32 %22, i32* %6, align 4
  %23 = getelementptr inbounds [256 x i8], [256 x i8]* %4, i64 0, i64 0
  %24 = call i64 @strlen(i8* %23) #3
  %25 = trunc i64 %24 to i32
  store i32 %25, i32* %7, align 4
  store i32 0, i32* %8, align 4
  br label %26

26:                                               ; preds = %118, %0
  %27 = load i32, i32* %8, align 4
  %28 = load i32, i32* %5, align 4
  %29 = icmp slt i32 %27, %28
  br i1 %29, label %30, label %121

30:                                               ; preds = %26
  store i32 0, i32* %10, align 4
  %31 = load i32, i32* %8, align 4
  store i32 %31, i32* %9, align 4
  br label %32

32:                                               ; preds = %109, %30
  %33 = load i32, i32* %9, align 4
  %34 = load i32, i32* %8, align 4
  %35 = load i32, i32* %6, align 4
  %36 = add nsw i32 %34, %35
  %37 = icmp slt i32 %33, %36
  br i1 %37, label %38, label %42

38:                                               ; preds = %32
  %39 = load i32, i32* %9, align 4
  %40 = load i32, i32* %5, align 4
  %41 = icmp slt i32 %39, %40
  br label %42

42:                                               ; preds = %38, %32
  %43 = phi i1 [ false, %32 ], [ %41, %38 ]
  br i1 %43, label %44, label %112

44:                                               ; preds = %42
  %45 = load i32, i32* %9, align 4
  %46 = sext i32 %45 to i64
  %47 = getelementptr inbounds [256 x i8], [256 x i8]* %2, i64 0, i64 %46
  %48 = load i8, i8* %47, align 1
  %49 = sext i8 %48 to i32
  %50 = load i32, i32* %9, align 4
  %51 = load i32, i32* %8, align 4
  %52 = sub nsw i32 %50, %51
  %53 = sext i32 %52 to i64
  %54 = getelementptr inbounds [256 x i8], [256 x i8]* %3, i64 0, i64 %53
  %55 = load i8, i8* %54, align 1
  %56 = sext i8 %55 to i32
  %57 = icmp ne i32 %49, %56
  br i1 %57, label %58, label %59

58:                                               ; preds = %44
  br label %109

59:                                               ; preds = %44
  %60 = load i32, i32* %9, align 4
  %61 = sext i32 %60 to i64
  %62 = getelementptr inbounds [256 x i8], [256 x i8]* %2, i64 0, i64 %61
  %63 = load i8, i8* %62, align 1
  %64 = sext i8 %63 to i32
  %65 = load i32, i32* %9, align 4
  %66 = load i32, i32* %8, align 4
  %67 = sub nsw i32 %65, %66
  %68 = sext i32 %67 to i64
  %69 = getelementptr inbounds [256 x i8], [256 x i8]* %3, i64 0, i64 %68
  %70 = load i8, i8* %69, align 1
  %71 = sext i8 %70 to i32
  %72 = icmp eq i32 %64, %71
  br i1 %72, label %73, label %76

73:                                               ; preds = %59
  %74 = load i32, i32* %10, align 4
  %75 = add nsw i32 %74, 1
  store i32 %75, i32* %10, align 4
  br label %76

76:                                               ; preds = %73, %59
  %77 = load i32, i32* %10, align 4
  %78 = load i32, i32* %6, align 4
  %79 = icmp eq i32 %77, %78
  br i1 %79, label %80, label %108

80:                                               ; preds = %76
  %81 = load i32, i32* %8, align 4
  store i32 %81, i32* %9, align 4
  br label %82

82:                                               ; preds = %104, %80
  %83 = load i32, i32* %9, align 4
  %84 = load i32, i32* %8, align 4
  %85 = load i32, i32* %6, align 4
  %86 = add nsw i32 %84, %85
  %87 = icmp slt i32 %83, %86
  br i1 %87, label %88, label %92

88:                                               ; preds = %82
  %89 = load i32, i32* %9, align 4
  %90 = load i32, i32* %5, align 4
  %91 = icmp slt i32 %89, %90
  br label %92

92:                                               ; preds = %88, %82
  %93 = phi i1 [ false, %82 ], [ %91, %88 ]
  br i1 %93, label %94, label %107

94:                                               ; preds = %92
  %95 = load i32, i32* %9, align 4
  %96 = load i32, i32* %8, align 4
  %97 = sub nsw i32 %95, %96
  %98 = sext i32 %97 to i64
  %99 = getelementptr inbounds [256 x i8], [256 x i8]* %4, i64 0, i64 %98
  %100 = load i8, i8* %99, align 1
  %101 = load i32, i32* %9, align 4
  %102 = sext i32 %101 to i64
  %103 = getelementptr inbounds [256 x i8], [256 x i8]* %2, i64 0, i64 %102
  store i8 %100, i8* %103, align 1
  br label %104

104:                                              ; preds = %94
  %105 = load i32, i32* %9, align 4
  %106 = add nsw i32 %105, 1
  store i32 %106, i32* %9, align 4
  br label %82

107:                                              ; preds = %92
  br label %112

108:                                              ; preds = %76
  br label %109

109:                                              ; preds = %108, %58
  %110 = load i32, i32* %9, align 4
  %111 = add nsw i32 %110, 1
  store i32 %111, i32* %9, align 4
  br label %32

112:                                              ; preds = %107, %42
  %113 = load i32, i32* %10, align 4
  %114 = load i32, i32* %6, align 4
  %115 = icmp eq i32 %113, %114
  br i1 %115, label %116, label %117

116:                                              ; preds = %112
  br label %121

117:                                              ; preds = %112
  br label %118

118:                                              ; preds = %117
  %119 = load i32, i32* %8, align 4
  %120 = add nsw i32 %119, 1
  store i32 %120, i32* %8, align 4
  br label %26

121:                                              ; preds = %116, %26
  %122 = getelementptr inbounds [256 x i8], [256 x i8]* %2, i64 0, i64 0
  %123 = call i32 (i8*, ...) @printf(i8* getelementptr inbounds ([3 x i8], [3 x i8]* @.str, i64 0, i64 0), i8* %122)
  ret i32 0
}

declare dso_local i32 @__isoc99_scanf(i8*, ...) #1

; Function Attrs: nounwind readonly
declare dso_local i64 @strlen(i8*) #2

declare dso_local i32 @printf(i8*, ...) #1


!llvm.module.flags = !{!0}
!llvm.ident = !{!1}

!0 = !{i32 1, !"wchar_size", i32 4}
!1 = !{!"clang version 10.0.0-4ubuntu1 "}
